target datalayout = "e-m:e-p270:32:32-p271:32:32-p272:64:64-i64:64-i128:128-f80:128-n8:16:32:64-S128"
target triple = "x86_64-pc-linux-gnu"

%struct.evp_cipher_ctx_st = type { ptr, ptr, ptr, i32, i32, i32, [16 x i8], [16 x i8], [32 x i8], i32, i32, i32, i32, [32 x i8] }

@.str = private unnamed_addr constant [10 x i8] c"ENCRYPTED\00", align 1
@.str.1 = private unnamed_addr constant [10 x i8] c"MIC-CLEAR\00", align 1
@.str.2 = private unnamed_addr constant [9 x i8] c"MIC-ONLY\00", align 1
@.str.3 = private unnamed_addr constant [9 x i8] c"BAD-TYPE\00", align 1
@.str.4 = private unnamed_addr constant [14 x i8] c"Proc-Type: 4,\00", align 1
@.str.5 = private unnamed_addr constant [2 x i8] c"\0A\00", align 1
@.str.8 = private unnamed_addr constant [124 x i8] c"generated/home/dtcxzyw/WorkSpace/Projects/compilers/llvm-opt-benchmark/bench/libquic/libquic/boringssl/crypto/pem/pem_lib.c\00", align 1

; Function Attrs: nounwind uwtable
define hidden void @PEM_proc_type(ptr noundef %0, i32 noundef %1) #0 {
  %3 = alloca ptr, align 8
  %4 = alloca i32, align 4
  %5 = alloca ptr, align 8
  store ptr %0, ptr %3, align 8, !tbaa !6
  store i32 %1, ptr %4, align 4, !tbaa !11
  call void @llvm.lifetime.start.p0(i64 8, ptr %5) #7
  %6 = load i32, ptr %4, align 4, !tbaa !11
  %7 = icmp eq i32 %6, 10
  br i1 %7, label %8, label %9

8:                                                ; preds = %2
  store ptr @.str, ptr %5, align 8, !tbaa !6
  br label %20

9:                                                ; preds = %2
  %10 = load i32, ptr %4, align 4, !tbaa !11
  %11 = icmp eq i32 %10, 30
  br i1 %11, label %12, label %13

12:                                               ; preds = %9
  store ptr @.str.1, ptr %5, align 8, !tbaa !6
  br label %19

13:                                               ; preds = %9
  %14 = load i32, ptr %4, align 4, !tbaa !11
  %15 = icmp eq i32 %14, 20
  br i1 %15, label %16, label %17

16:                                               ; preds = %13
  store ptr @.str.2, ptr %5, align 8, !tbaa !6
  br label %18

17:                                               ; preds = %13
  store ptr @.str.3, ptr %5, align 8, !tbaa !6
  br label %18

18:                                               ; preds = %17, %16
  br label %19

19:                                               ; preds = %18, %12
  br label %20

20:                                               ; preds = %19, %8
  %21 = load ptr, ptr %3, align 8, !tbaa !6
  %22 = call i64 @BUF_strlcat(ptr noundef %21, ptr noundef @.str.4, i64 noundef 1024)
  %23 = load ptr, ptr %3, align 8, !tbaa !6
  %24 = load ptr, ptr %5, align 8, !tbaa !6
  %25 = call i64 @BUF_strlcat(ptr noundef %23, ptr noundef %24, i64 noundef 1024)
  %26 = load ptr, ptr %3, align 8, !tbaa !6
  %27 = call i64 @BUF_strlcat(ptr noundef %26, ptr noundef @.str.5, i64 noundef 1024)
  call void @llvm.lifetime.end.p0(i64 8, ptr %5) #7
  ret void
}

; Function Attrs: nounwind uwtable
define hidden i32 @PEM_ASN1_write_bio(ptr noundef %0, ptr noundef %1, ptr noundef %2, ptr noundef %3, ptr noundef %4, ptr noundef %5, i32 noundef %6, ptr noundef %7, ptr noundef %8) #0 {
  %10 = alloca i32, align 4
  %11 = alloca ptr, align 8
  %12 = alloca ptr, align 8
  %13 = alloca ptr, align 8
  %14 = alloca ptr, align 8
  %15 = alloca ptr, align 8
  %16 = alloca ptr, align 8
  %17 = alloca i32, align 4
  %18 = alloca ptr, align 8
  %19 = alloca ptr, align 8
  %20 = alloca %struct.evp_cipher_ctx_st, align 8
  %21 = alloca i32, align 4
  %22 = alloca i32, align 4
  %23 = alloca i32, align 4
  %24 = alloca i32, align 4
  %25 = alloca ptr, align 8
  %26 = alloca ptr, align 8
  %27 = alloca ptr, align 8
  %28 = alloca [1024 x i8], align 16
  %29 = alloca [64 x i8], align 16
  %30 = alloca [16 x i8], align 16
  %31 = alloca i32, align 4
  %32 = alloca i32, align 4
  store ptr %0, ptr %11, align 8, !tbaa !18
  store ptr %1, ptr %12, align 8, !tbaa !6
  store ptr %2, ptr %13, align 8, !tbaa !21
  store ptr %3, ptr %14, align 8, !tbaa !18
  store ptr %4, ptr %15, align 8, !tbaa !37
  store ptr %5, ptr %16, align 8, !tbaa !6
  store i32 %6, ptr %17, align 4, !tbaa !11
  store ptr %7, ptr %18, align 8, !tbaa !18
  store ptr %8, ptr %19, align 8, !tbaa !18
  call void @llvm.lifetime.start.p0(i64 152, ptr %20) #7
  call void @llvm.lifetime.start.p0(i64 4, ptr %21) #7
  store i32 0, ptr %21, align 4, !tbaa !11
  call void @llvm.lifetime.start.p0(i64 4, ptr %22) #7
  call void @llvm.lifetime.start.p0(i64 4, ptr %23) #7
  call void @llvm.lifetime.start.p0(i64 4, ptr %24) #7
  store i32 0, ptr %24, align 4, !tbaa !11
  call void @llvm.lifetime.start.p0(i64 8, ptr %25) #7
  call void @llvm.lifetime.start.p0(i64 8, ptr %26) #7
  store ptr null, ptr %26, align 8, !tbaa !6
  call void @llvm.lifetime.start.p0(i64 8, ptr %27) #7
  store ptr null, ptr %27, align 8, !tbaa !6
  call void @llvm.lifetime.start.p0(i64 1024, ptr %28) #7
  call void @llvm.lifetime.start.p0(i64 64, ptr %29) #7
  call void @llvm.lifetime.start.p0(i64 16, ptr %30) #7
  %33 = load ptr, ptr %15, align 8, !tbaa !37
  %34 = icmp ne ptr %33, null
  br i1 %34, label %35, label %43

35:                                               ; preds = %9
  %36 = load ptr, ptr %15, align 8, !tbaa !37
  %37 = call i32 @EVP_CIPHER_nid(ptr noundef %36)
  %38 = call ptr @OBJ_nid2sn(i32 noundef %37)
  store ptr %38, ptr %27, align 8, !tbaa !6
  %39 = load ptr, ptr %27, align 8, !tbaa !6
  %40 = icmp eq ptr %39, null
  br i1 %40, label %41, label %42

41:                                               ; preds = %35
  call void @ERR_put_error(i32 noundef 9, i32 noundef 0, i32 noundef 113, ptr noundef @.str.8, i32 noundef 266)
  br label %160

42:                                               ; preds = %35
  br label %43

43:                                               ; preds = %42, %9
  %44 = load ptr, ptr %11, align 8, !tbaa !18
  %45 = load ptr, ptr %14, align 8, !tbaa !18
  %46 = call i32 %44(ptr noundef %45, ptr noundef null)
  store i32 %46, ptr %21, align 4, !tbaa !11
  %47 = icmp slt i32 %46, 0
  br i1 %47, label %48, label %49

48:                                               ; preds = %43
  call void @ERR_put_error(i32 noundef 9, i32 noundef 0, i32 noundef 12, ptr noundef @.str.8, i32 noundef 272)
  store i32 0, ptr %21, align 4, !tbaa !11
  br label %160

49:                                               ; preds = %43
  %50 = load i32, ptr %21, align 4, !tbaa !11
  %51 = add i32 %50, 20
  %52 = zext i32 %51 to i64
  %53 = call noalias ptr @malloc(i64 noundef %52) #9
  store ptr %53, ptr %26, align 8, !tbaa !6
  %54 = load ptr, ptr %26, align 8, !tbaa !6
  %55 = icmp eq ptr %54, null
  br i1 %55, label %56, label %57

56:                                               ; preds = %49
  call void @ERR_put_error(i32 noundef 9, i32 noundef 0, i32 noundef 65, ptr noundef @.str.8, i32 noundef 280)
  br label %160

57:                                               ; preds = %49
  %58 = load ptr, ptr %26, align 8, !tbaa !6
  store ptr %58, ptr %25, align 8, !tbaa !6
  %59 = load ptr, ptr %11, align 8, !tbaa !18
  %60 = load ptr, ptr %14, align 8, !tbaa !18
  %61 = call i32 %59(ptr noundef %60, ptr noundef %25)
  store i32 %61, ptr %22, align 4, !tbaa !11
  %62 = load ptr, ptr %15, align 8, !tbaa !37
  %63 = icmp ne ptr %62, null
  br i1 %63, label %64, label %146

64:                                               ; preds = %57
  call void @llvm.lifetime.start.p0(i64 4, ptr %31) #7
  %65 = load ptr, ptr %15, align 8, !tbaa !37
  %66 = call i32 @EVP_CIPHER_iv_length(ptr noundef %65)
  store i32 %66, ptr %31, align 4, !tbaa !11
  %67 = load ptr, ptr %16, align 8, !tbaa !6
  %68 = icmp eq ptr %67, null
  br i1 %68, label %69, label %83

69:                                               ; preds = %64
  store i32 0, ptr %17, align 4, !tbaa !11
  %70 = load ptr, ptr %18, align 8, !tbaa !18
  %71 = icmp ne ptr %70, null
  br i1 %71, label %73, label %72

72:                                               ; preds = %69
  store ptr @PEM_def_callback, ptr %18, align 8, !tbaa !18
  br label %73

73:                                               ; preds = %72, %69
  %74 = load ptr, ptr %18, align 8, !tbaa !18
  %75 = getelementptr inbounds [1024 x i8], ptr %28, i64 0, i64 0
  %76 = load ptr, ptr %19, align 8, !tbaa !18
  %77 = call i32 %74(ptr noundef %75, i32 noundef 1024, i32 noundef 1, ptr noundef %76)
  store i32 %77, ptr %17, align 4, !tbaa !11
  %78 = load i32, ptr %17, align 4, !tbaa !11
  %79 = icmp sle i32 %78, 0
  br i1 %79, label %80, label %81

80:                                               ; preds = %73
  call void @ERR_put_error(i32 noundef 9, i32 noundef 0, i32 noundef 111, ptr noundef @.str.8, i32 noundef 295)
  store i32 2, ptr %32, align 4
  br label %143

81:                                               ; preds = %73
  %82 = getelementptr inbounds [1024 x i8], ptr %28, i64 0, i64 0
  store ptr %82, ptr %16, align 8, !tbaa !6
  br label %83

83:                                               ; preds = %81, %64
  %84 = getelementptr inbounds [16 x i8], ptr %30, i64 0, i64 0
  %85 = load i32, ptr %31, align 4, !tbaa !11
  %86 = zext i32 %85 to i64
  %87 = call i32 @RAND_bytes(ptr noundef %84, i64 noundef %86)
  %88 = icmp ne i32 %87, 0
  br i1 %88, label %90, label %89

89:                                               ; preds = %83
  store i32 2, ptr %32, align 4
  br label %143

90:                                               ; preds = %83
  %91 = load ptr, ptr %15, align 8, !tbaa !37
  %92 = call ptr @EVP_md5()
  %93 = getelementptr inbounds [16 x i8], ptr %30, i64 0, i64 0
  %94 = load ptr, ptr %16, align 8, !tbaa !6
  %95 = load i32, ptr %17, align 4, !tbaa !11
  %96 = sext i32 %95 to i64
  %97 = getelementptr inbounds [64 x i8], ptr %29, i64 0, i64 0
  %98 = call i32 @EVP_BytesToKey(ptr noundef %91, ptr noundef %92, ptr noundef %93, ptr noundef %94, i64 noundef %96, i32 noundef 1, ptr noundef %97, ptr noundef null)
  %99 = icmp ne i32 %98, 0
  br i1 %99, label %101, label %100

100:                                              ; preds = %90
  store i32 2, ptr %32, align 4
  br label %143

101:                                              ; preds = %90
  %102 = load ptr, ptr %16, align 8, !tbaa !6
  %103 = getelementptr inbounds [1024 x i8], ptr %28, i64 0, i64 0
  %104 = icmp eq ptr %102, %103
  br i1 %104, label %105, label %107

105:                                              ; preds = %101
  %106 = getelementptr inbounds [1024 x i8], ptr %28, i64 0, i64 0
  call void @OPENSSL_cleanse(ptr noundef %106, i64 noundef 1024)
  br label %107

107:                                              ; preds = %105, %101
  %108 = getelementptr inbounds [1024 x i8], ptr %28, i64 0, i64 0
  store i8 0, ptr %108, align 16, !tbaa !15
  %109 = getelementptr inbounds [1024 x i8], ptr %28, i64 0, i64 0
  call void @PEM_proc_type(ptr noundef %109, i32 noundef 10)
  %110 = getelementptr inbounds [1024 x i8], ptr %28, i64 0, i64 0
  %111 = load ptr, ptr %27, align 8, !tbaa !6
  %112 = load i32, ptr %31, align 4, !tbaa !11
  %113 = getelementptr inbounds [16 x i8], ptr %30, i64 0, i64 0
  call void @PEM_dek_info(ptr noundef %110, ptr noundef %111, i32 noundef %112, ptr noundef %113)
  call void @EVP_CIPHER_CTX_init(ptr noundef %20)
  store i32 1, ptr %24, align 4, !tbaa !11
  %114 = load ptr, ptr %15, align 8, !tbaa !37
  %115 = getelementptr inbounds [64 x i8], ptr %29, i64 0, i64 0
  %116 = getelementptr inbounds [16 x i8], ptr %30, i64 0, i64 0
  %117 = call i32 @EVP_EncryptInit_ex(ptr noundef %20, ptr noundef %114, ptr noundef null, ptr noundef %115, ptr noundef %116)
  %118 = icmp ne i32 %117, 0
  br i1 %118, label %119, label %132

119:                                              ; preds = %107
  %120 = load ptr, ptr %26, align 8, !tbaa !6
  %121 = load ptr, ptr %26, align 8, !tbaa !6
  %122 = load i32, ptr %22, align 4, !tbaa !11
  %123 = call i32 @EVP_EncryptUpdate(ptr noundef %20, ptr noundef %120, ptr noundef %23, ptr noundef %121, i32 noundef %122)
  %124 = icmp ne i32 %123, 0
  br i1 %124, label %125, label %132

125:                                              ; preds = %119
  %126 = load ptr, ptr %26, align 8, !tbaa !6
  %127 = load i32, ptr %23, align 4, !tbaa !11
  %128 = sext i32 %127 to i64
  %129 = getelementptr inbounds i8, ptr %126, i64 %128
  %130 = call i32 @EVP_EncryptFinal_ex(ptr noundef %20, ptr noundef %129, ptr noundef %22)
  %131 = icmp ne i32 %130, 0
  br i1 %131, label %133, label %132

132:                                              ; preds = %125, %119, %107
  store i32 0, ptr %24, align 4, !tbaa !11
  br label %137

133:                                              ; preds = %125
  %134 = load i32, ptr %23, align 4, !tbaa !11
  %135 = load i32, ptr %22, align 4, !tbaa !11
  %136 = add nsw i32 %135, %134
  store i32 %136, ptr %22, align 4, !tbaa !11
  br label %137

137:                                              ; preds = %133, %132
  %138 = call i32 @EVP_CIPHER_CTX_cleanup(ptr noundef %20)
  %139 = load i32, ptr %24, align 4, !tbaa !11
  %140 = icmp eq i32 %139, 0
  br i1 %140, label %141, label %142

141:                                              ; preds = %137
  store i32 2, ptr %32, align 4
  br label %143

142:                                              ; preds = %137
  store i32 0, ptr %32, align 4
  br label %143

143:                                              ; preds = %141, %100, %89, %80, %142
  call void @llvm.lifetime.end.p0(i64 4, ptr %31) #7
  %144 = load i32, ptr %32, align 4
  switch i32 %144, label %173 [
    i32 0, label %145
    i32 2, label %160
  ]

145:                                              ; preds = %143
  br label %148

146:                                              ; preds = %57
  store i32 1, ptr %24, align 4, !tbaa !11
  %147 = getelementptr inbounds [1024 x i8], ptr %28, i64 0, i64 0
  store i8 0, ptr %147, align 16, !tbaa !15
  br label %148

148:                                              ; preds = %146, %145
  %149 = load ptr, ptr %13, align 8, !tbaa !21
  %150 = load ptr, ptr %12, align 8, !tbaa !6
  %151 = getelementptr inbounds [1024 x i8], ptr %28, i64 0, i64 0
  %152 = load ptr, ptr %26, align 8, !tbaa !6
  %153 = load i32, ptr %22, align 4, !tbaa !11
  %154 = sext i32 %153 to i64
  %155 = call i32 @PEM_write_bio(ptr noundef %149, ptr noundef %150, ptr noundef %151, ptr noundef %152, i64 noundef %154)
  store i32 %155, ptr %22, align 4, !tbaa !11
  %156 = load i32, ptr %22, align 4, !tbaa !11
  %157 = icmp sle i32 %156, 0
  br i1 %157, label %158, label %159

158:                                              ; preds = %148
  store i32 0, ptr %24, align 4, !tbaa !11
  br label %159

159:                                              ; preds = %158, %148
  br label %160

160:                                              ; preds = %159, %143, %56, %48, %41
  %161 = getelementptr inbounds [64 x i8], ptr %29, i64 0, i64 0
  call void @OPENSSL_cleanse(ptr noundef %161, i64 noundef 64)
  %162 = getelementptr inbounds [16 x i8], ptr %30, i64 0, i64 0
  call void @OPENSSL_cleanse(ptr noundef %162, i64 noundef 16)
  call void @OPENSSL_cleanse(ptr noundef %20, i64 noundef 152)
  %163 = getelementptr inbounds [1024 x i8], ptr %28, i64 0, i64 0
  call void @OPENSSL_cleanse(ptr noundef %163, i64 noundef 1024)
  %164 = load ptr, ptr %26, align 8, !tbaa !6
  %165 = icmp ne ptr %164, null
  br i1 %165, label %166, label %171

166:                                              ; preds = %160
  %167 = load ptr, ptr %26, align 8, !tbaa !6
  %168 = load i32, ptr %21, align 4, !tbaa !11
  %169 = zext i32 %168 to i64
  call void @OPENSSL_cleanse(ptr noundef %167, i64 noundef %169)
  %170 = load ptr, ptr %26, align 8, !tbaa !6
  call void @free(ptr noundef %170) #7
  br label %171

171:                                              ; preds = %166, %160
  %172 = load i32, ptr %24, align 4, !tbaa !11
  store i32 %172, ptr %10, align 4
  store i32 1, ptr %32, align 4
  br label %173

173:                                              ; preds = %171, %143
  call void @llvm.lifetime.end.p0(i64 16, ptr %30) #7
  call void @llvm.lifetime.end.p0(i64 64, ptr %29) #7
  call void @llvm.lifetime.end.p0(i64 1024, ptr %28) #7
  call void @llvm.lifetime.end.p0(i64 8, ptr %27) #7
  call void @llvm.lifetime.end.p0(i64 8, ptr %26) #7
  call void @llvm.lifetime.end.p0(i64 8, ptr %25) #7
  call void @llvm.lifetime.end.p0(i64 4, ptr %24) #7
  call void @llvm.lifetime.end.p0(i64 4, ptr %23) #7
  call void @llvm.lifetime.end.p0(i64 4, ptr %22) #7
  call void @llvm.lifetime.end.p0(i64 4, ptr %21) #7
  call void @llvm.lifetime.end.p0(i64 152, ptr %20) #7
  %174 = load i32, ptr %10, align 4
  ret i32 %174
}