; Function Attrs: nounwind uwtable
define hidden range(i32 0, 2) i32 @PEM_ASN1_write_bio(ptr noundef readonly captures(none) %0, ptr noundef %1, ptr noundef %2, ptr noundef %3, ptr noundef %4, ptr noundef %5, i32 noundef %6, ptr noundef readonly captures(address_is_null) %7, ptr noundef %8) local_unnamed_addr #0 {
  %10 = alloca %struct.evp_cipher_ctx_st, align 8
  %11 = alloca i32, align 4
  %12 = alloca i32, align 4
  %13 = alloca ptr, align 8
  %14 = alloca [1024 x i8], align 16
  %15 = alloca [64 x i8], align 16
  %16 = alloca [16 x i8], align 16
  call void @llvm.lifetime.start.p0(i64 152, ptr nonnull %10) #12
  call void @llvm.lifetime.start.p0(i64 4, ptr nonnull %11) #12
  call void @llvm.lifetime.start.p0(i64 4, ptr nonnull %12) #12
  call void @llvm.lifetime.start.p0(i64 8, ptr nonnull %13) #12
  call void @llvm.lifetime.start.p0(i64 1024, ptr nonnull %14) #12
  call void @llvm.lifetime.start.p0(i64 64, ptr nonnull %15) #12
  call void @llvm.lifetime.start.p0(i64 16, ptr nonnull %16) #12
  %.not = icmp eq ptr %4, null
  br i1 %.not, label %22, label %17

17:                                               ; preds = %9
  %18 = tail call i32 @EVP_CIPHER_nid(ptr noundef nonnull %4) #12
  %19 = tail call ptr @OBJ_nid2sn(i32 noundef %18) #12
  %20 = icmp eq ptr %19, null
  br i1 %20, label %21, label %22

21:                                               ; preds = %17
  tail call void @ERR_put_error(i32 noundef 9, i32 noundef 0, i32 noundef 113, ptr noundef nonnull @.str.8, i32 noundef 266) #12
  br label %.thread65

22:                                               ; preds = %17, %9
  %.039 = phi ptr [ %19, %17 ], [ null, %9 ]
  %23 = tail call i32 %0(ptr noundef %3, ptr noundef null) #12
  %24 = icmp slt i32 %23, 0
  br i1 %24, label %25, label %26

25:                                               ; preds = %22
  tail call void @ERR_put_error(i32 noundef 9, i32 noundef 0, i32 noundef 12, ptr noundef nonnull @.str.8, i32 noundef 272) #12
  br label %.thread65

26:                                               ; preds = %22
  %27 = add nuw i32 %23, 20
  %28 = zext i32 %27 to i64
  %29 = tail call noalias ptr @malloc(i64 noundef %28) #14
  %30 = icmp eq ptr %29, null
  br i1 %30, label %31, label %32

31:                                               ; preds = %26
  tail call void @ERR_put_error(i32 noundef 9, i32 noundef 0, i32 noundef 65, ptr noundef nonnull @.str.8, i32 noundef 280) #12
  br label %.thread65

32:                                               ; preds = %26
  store ptr %29, ptr %13, align 8, !tbaa !11
  %33 = call i32 %0(ptr noundef %3, ptr noundef nonnull %13) #12
  store i32 %33, ptr %11, align 4, !tbaa !16
  br i1 %.not, label %70, label %34

34:                                               ; preds = %32
  %35 = call i32 @EVP_CIPHER_iv_length(ptr noundef nonnull %4) #12
  %36 = icmp eq ptr %5, null
  br i1 %36, label %37, label %41

37:                                               ; preds = %34
  %.not54 = icmp eq ptr %7, null
  %spec.store.select = select i1 %.not54, ptr @PEM_def_callback, ptr %7
  %38 = call i32 %spec.store.select(ptr noundef nonnull %14, i32 noundef 1024, i32 noundef 1, ptr noundef %8) #12
  %39 = icmp slt i32 %38, 1
  br i1 %39, label %40, label %41

40:                                               ; preds = %37
  call void @ERR_put_error(i32 noundef 9, i32 noundef 0, i32 noundef 111, ptr noundef nonnull @.str.8, i32 noundef 295) #12
  br label %.thread65

41:                                               ; preds = %37, %34
  %.044 = phi i32 [ %6, %34 ], [ %38, %37 ]
  %.043 = phi ptr [ %5, %34 ], [ %14, %37 ]
  %42 = zext i32 %35 to i64
  %43 = call i32 @RAND_bytes(ptr noundef nonnull %16, i64 noundef %42) #12
  %.not55 = icmp eq i32 %43, 0
  br i1 %.not55, label %.thread65, label %44

44:                                               ; preds = %41
  %45 = call ptr @EVP_md5() #12
  %46 = sext i32 %.044 to i64
  %47 = call i32 @EVP_BytesToKey(ptr noundef nonnull %4, ptr noundef %45, ptr noundef nonnull %16, ptr noundef nonnull %.043, i64 noundef %46, i32 noundef 1, ptr noundef nonnull %15, ptr noundef null) #12
  %.not56 = icmp eq i32 %47, 0
  br i1 %.not56, label %.thread65, label %48

48:                                               ; preds = %44
  %49 = icmp eq ptr %.043, %14
  br i1 %49, label %50, label %51

50:                                               ; preds = %48
  call void @OPENSSL_cleanse(ptr noundef nonnull %14, i64 noundef 1024) #12
  br label %51

51:                                               ; preds = %50, %48
  store i8 0, ptr %14, align 16, !tbaa !6
  %52 = call i64 @BUF_strlcat(ptr noundef nonnull %14, ptr noundef nonnull @.str.4, i64 noundef 1024) #12
  %53 = call i64 @BUF_strlcat(ptr noundef nonnull %14, ptr noundef nonnull @.str, i64 noundef 1024) #12
  %54 = call i64 @BUF_strlcat(ptr noundef nonnull %14, ptr noundef nonnull @.str.5, i64 noundef 1024) #12
  call void @PEM_dek_info(ptr noundef nonnull %14, ptr noundef %.039, i32 noundef %35, ptr noundef nonnull %16)
  call void @EVP_CIPHER_CTX_init(ptr noundef nonnull %10) #12
  %55 = call i32 @EVP_EncryptInit_ex(ptr noundef nonnull %10, ptr noundef nonnull %4, ptr noundef null, ptr noundef nonnull %15, ptr noundef nonnull %16) #12
  %.not57 = icmp eq i32 %55, 0
  br i1 %.not57, label %63, label %56

56:                                               ; preds = %51
  %57 = call i32 @EVP_EncryptUpdate(ptr noundef nonnull %10, ptr noundef nonnull %29, ptr noundef nonnull %12, ptr noundef nonnull %29, i32 noundef %33) #12
  %.not58 = icmp eq i32 %57, 0
  br i1 %.not58, label %63, label %58

58:                                               ; preds = %56
  %59 = load i32, ptr %12, align 4, !tbaa !16
  %60 = sext i32 %59 to i64
  %61 = getelementptr inbounds i8, ptr %29, i64 %60
  %62 = call i32 @EVP_EncryptFinal_ex(ptr noundef nonnull %10, ptr noundef nonnull %61, ptr noundef nonnull %11) #12
  %.not59 = icmp eq i32 %62, 0
  br i1 %.not59, label %63, label %65

63:                                               ; preds = %51, %56, %58
  %64 = call i32 @EVP_CIPHER_CTX_cleanup(ptr noundef nonnull %10) #12
  br label %.thread65

65:                                               ; preds = %58
  %66 = load i32, ptr %12, align 4, !tbaa !16
  %67 = load i32, ptr %11, align 4, !tbaa !16
  %68 = add nsw i32 %67, %66
  store i32 %68, ptr %11, align 4, !tbaa !16
  %69 = call i32 @EVP_CIPHER_CTX_cleanup(ptr noundef nonnull %10) #12
  %.pre = load i32, ptr %11, align 4, !tbaa !16
  br label %71

70:                                               ; preds = %32
  store i8 0, ptr %14, align 16, !tbaa !6
  br label %71

71:                                               ; preds = %65, %70
  %72 = phi i32 [ %.pre, %65 ], [ %33, %70 ]
  %73 = sext i32 %72 to i64
  %74 = call i32 @PEM_write_bio(ptr noundef %2, ptr noundef %1, ptr noundef nonnull %14, ptr noundef nonnull %29, i64 noundef %73)
  store i32 %74, ptr %11, align 4, !tbaa !16
  %75 = icmp sgt i32 %74, 0
  %spec.select = zext i1 %75 to i32
  br label %.thread65

.thread65:                                        ; preds = %63, %44, %41, %40, %71, %31, %25, %21
  %.042 = phi i32 [ 0, %21 ], [ 0, %25 ], [ %23, %31 ], [ %23, %71 ], [ %23, %40 ], [ %23, %41 ], [ %23, %44 ], [ %23, %63 ]
  %.041 = phi i32 [ 0, %21 ], [ 0, %25 ], [ 0, %31 ], [ %spec.select, %71 ], [ 0, %40 ], [ 0, %41 ], [ 0, %44 ], [ 0, %63 ]
  %.040 = phi ptr [ null, %21 ], [ null, %25 ], [ null, %31 ], [ %29, %71 ], [ %29, %40 ], [ %29, %41 ], [ %29, %44 ], [ %29, %63 ]
  call void @OPENSSL_cleanse(ptr noundef nonnull %15, i64 noundef 64) #12
  call void @OPENSSL_cleanse(ptr noundef nonnull %16, i64 noundef 16) #12
  call void @OPENSSL_cleanse(ptr noundef nonnull %10, i64 noundef 152) #12
  call void @OPENSSL_cleanse(ptr noundef nonnull %14, i64 noundef 1024) #12
  %.not60 = icmp eq ptr %.040, null
  br i1 %.not60, label %78, label %76

76:                                               ; preds = %.thread65
  %77 = zext nneg i32 %.042 to i64
  call void @OPENSSL_cleanse(ptr noundef nonnull %.040, i64 noundef %77) #12
  call void @free(ptr noundef nonnull %.040) #12
  br label %78

78:                                               ; preds = %.thread65, %76
  call void @llvm.lifetime.end.p0(i64 16, ptr nonnull %16) #12
  call void @llvm.lifetime.end.p0(i64 64, ptr nonnull %15) #12
  call void @llvm.lifetime.end.p0(i64 1024, ptr nonnull %14) #12
  call void @llvm.lifetime.end.p0(i64 8, ptr nonnull %13) #12
  call void @llvm.lifetime.end.p0(i64 4, ptr nonnull %12) #12
  call void @llvm.lifetime.end.p0(i64 4, ptr nonnull %11) #12
  call void @llvm.lifetime.end.p0(i64 152, ptr nonnull %10) #12
  ret i32 %.041
}